	.file	"lex.yy.c"
.lcomm _yy_current_buffer,4,4
.lcomm _yy_hold_char,1,1
.lcomm _yy_n_chars,4,4
	.comm	_yyleng, 4, 2
.lcomm _yy_c_buf_p,4,4
	.data
	.align 4
_yy_init:
	.long	1
.lcomm _yy_start,4,4
.lcomm _yy_did_buffer_switch_on_eof,4,4
	.globl	_yyin
	.bss
	.align 4
_yyin:
	.space 4
	.globl	_yyout
	.align 4
_yyout:
	.space 4
	.section .rdata,"dr"
	.align 2
_yy_accept:
	.word	0
	.word	0
	.word	0
	.word	6
	.word	4
	.word	3
	.word	2
	.word	1
	.word	2
	.word	1
	.word	0
	.align 32
_yy_ec:
	.long	0
	.long	1
	.long	1
	.long	1
	.long	1
	.long	1
	.long	1
	.long	1
	.long	1
	.long	1
	.long	2
	.long	1
	.long	1
	.long	1
	.long	1
	.long	1
	.long	1
	.long	1
	.long	1
	.long	1
	.long	1
	.long	1
	.long	1
	.long	1
	.long	1
	.long	1
	.long	1
	.long	1
	.long	1
	.long	1
	.long	1
	.long	1
	.long	1
	.long	1
	.long	1
	.long	1
	.long	1
	.long	1
	.long	1
	.long	1
	.long	1
	.long	1
	.long	1
	.long	1
	.long	1
	.long	1
	.long	1
	.long	1
	.long	3
	.long	3
	.long	3
	.long	3
	.long	3
	.long	3
	.long	3
	.long	3
	.long	3
	.long	3
	.long	1
	.long	1
	.long	1
	.long	1
	.long	1
	.long	1
	.long	1
	.long	4
	.long	4
	.long	4
	.long	4
	.long	4
	.long	4
	.long	4
	.long	4
	.long	4
	.long	4
	.long	4
	.long	4
	.long	4
	.long	4
	.long	4
	.long	4
	.long	4
	.long	4
	.long	4
	.long	4
	.long	4
	.long	4
	.long	4
	.long	4
	.long	4
	.long	4
	.long	1
	.long	1
	.long	1
	.long	1
	.long	1
	.long	1
	.long	4
	.long	4
	.long	4
	.long	4
	.long	4
	.long	4
	.long	4
	.long	4
	.long	4
	.long	4
	.long	4
	.long	4
	.long	4
	.long	4
	.long	4
	.long	4
	.long	4
	.long	4
	.long	4
	.long	4
	.long	4
	.long	4
	.long	4
	.long	4
	.long	4
	.long	4
	.long	1
	.long	1
	.long	1
	.long	1
	.long	1
	.long	1
	.long	1
	.long	1
	.long	1
	.long	1
	.long	1
	.long	1
	.long	1
	.long	1
	.long	1
	.long	1
	.long	1
	.long	1
	.long	1
	.long	1
	.long	1
	.long	1
	.long	1
	.long	1
	.long	1
	.long	1
	.long	1
	.long	1
	.long	1
	.long	1
	.long	1
	.long	1
	.long	1
	.long	1
	.long	1
	.long	1
	.long	1
	.long	1
	.long	1
	.long	1
	.long	1
	.long	1
	.long	1
	.long	1
	.long	1
	.long	1
	.long	1
	.long	1
	.long	1
	.long	1
	.long	1
	.long	1
	.long	1
	.long	1
	.long	1
	.long	1
	.long	1
	.long	1
	.long	1
	.long	1
	.long	1
	.long	1
	.long	1
	.long	1
	.long	1
	.long	1
	.long	1
	.long	1
	.long	1
	.long	1
	.long	1
	.long	1
	.long	1
	.long	1
	.long	1
	.long	1
	.long	1
	.long	1
	.long	1
	.long	1
	.long	1
	.long	1
	.long	1
	.long	1
	.long	1
	.long	1
	.long	1
	.long	1
	.long	1
	.long	1
	.long	1
	.long	1
	.long	1
	.long	1
	.long	1
	.long	1
	.long	1
	.long	1
	.long	1
	.long	1
	.long	1
	.long	1
	.long	1
	.long	1
	.long	1
	.long	1
	.long	1
	.long	1
	.long	1
	.long	1
	.long	1
	.long	1
	.long	1
	.long	1
	.long	1
	.long	1
	.long	1
	.long	1
	.long	1
	.long	1
	.long	1
	.long	1
	.long	1
	.long	1
	.long	1
	.long	1
	.long	1
	.long	1
	.long	1
	.long	1
	.long	1
	.long	1
	.long	1
	.align 4
_yy_meta:
	.long	0
	.long	1
	.long	1
	.long	2
	.long	3
	.align 2
_yy_base:
	.word	0
	.word	0
	.word	0
	.word	7
	.word	8
	.word	8
	.word	0
	.word	0
	.word	0
	.word	0
	.word	8
	.word	4
	.word	2
	.align 2
_yy_def:
	.word	0
	.word	10
	.word	1
	.word	10
	.word	10
	.word	10
	.word	11
	.word	12
	.word	11
	.word	12
	.word	0
	.word	10
	.word	10
	.align 2
_yy_nxt:
	.word	0
	.word	4
	.word	5
	.word	6
	.word	7
	.word	9
	.word	8
	.word	10
	.word	3
	.word	10
	.word	10
	.word	10
	.word	10
	.align 2
_yy_chk:
	.word	0
	.word	1
	.word	1
	.word	1
	.word	1
	.word	12
	.word	11
	.word	3
	.word	10
	.word	10
	.word	10
	.word	10
	.word	10
.lcomm _yy_last_accepting_state,4,4
.lcomm _yy_last_accepting_cpos,4,4
	.comm	_yytext, 4, 2
	.align 4
LC0:
	.ascii "fatal flex scanner internal error--no action found\0"
	.text
	.globl	_yylex
	.def	_yylex;	.scl	2;	.type	32;	.endef
_yylex:
LFB6:
	.cfi_startproc
	pushl	%ebp
	.cfi_def_cfa_offset 8
	.cfi_offset 5, -8
	movl	%esp, %ebp
	.cfi_def_cfa_register 5
	pushl	%edi
	pushl	%esi
	pushl	%ebx
	subl	$60, %esp
	.cfi_offset 7, -12
	.cfi_offset 6, -16
	.cfi_offset 3, -20
	movl	_yy_init, %eax
	testl	%eax, %eax
	je	L2
	movl	$0, _yy_init
	movl	_yy_start, %eax
	testl	%eax, %eax
	jne	L3
	movl	$1, _yy_start
L3:
	movl	_yyin, %eax
	testl	%eax, %eax
	jne	L4
	movl	__imp___iob, %eax
	movl	%eax, _yyin
L4:
	movl	_yyout, %eax
	testl	%eax, %eax
	jne	L5
	movl	__imp___iob, %eax
	addl	$32, %eax
	movl	%eax, _yyout
L5:
	movl	_yy_current_buffer, %eax
	testl	%eax, %eax
	jne	L6
	movl	_yyin, %eax
	movl	$16384, 4(%esp)
	movl	%eax, (%esp)
	call	_yy_create_buffer
	movl	%eax, _yy_current_buffer
L6:
	call	_yy_load_buffer_state
L2:
	movl	_yy_c_buf_p, %esi
	movb	_yy_hold_char, %al
	movb	%al, (%esi)
	movl	%esi, %edi
	movl	_yy_start, %ebx
L7:
	movb	(%esi), %al
	movzbl	%al, %eax
	movl	_yy_ec(,%eax,4), %eax
	movb	%al, -41(%ebp)
	movw	_yy_accept(%ebx,%ebx), %ax
	testw	%ax, %ax
	je	L35
	movl	%ebx, _yy_last_accepting_state
	movl	%esi, _yy_last_accepting_cpos
	jmp	L35
L10:
	movw	_yy_def(%ebx,%ebx), %ax
	movswl	%ax, %ebx
	cmpl	$10, %ebx
	jle	L9
	movzbl	-41(%ebp), %eax
	movl	_yy_meta(,%eax,4), %eax
	movb	%al, -41(%ebp)
	jmp	L9
L35:
	nop
L9:
	movw	_yy_base(%ebx,%ebx), %ax
	movswl	%ax, %edx
	movzbl	-41(%ebp), %eax
	addl	%edx, %eax
	movw	_yy_chk(%eax,%eax), %ax
	cwtl
	cmpl	%ebx, %eax
	jne	L10
	movw	_yy_base(%ebx,%ebx), %ax
	movswl	%ax, %edx
	movzbl	-41(%ebp), %eax
	addl	%edx, %eax
	movw	_yy_nxt(%eax,%eax), %ax
	movswl	%ax, %ebx
	incl	%esi
	movw	_yy_base(%ebx,%ebx), %ax
	cmpw	$8, %ax
	jne	L7
L11:
	movw	_yy_accept(%ebx,%ebx), %ax
	movswl	%ax, %ebx
	testl	%ebx, %ebx
	jne	L12
	movl	_yy_last_accepting_cpos, %esi
	movl	_yy_last_accepting_state, %ebx
	movw	_yy_accept(%ebx,%ebx), %ax
	movswl	%ax, %ebx
L12:
	movl	%edi, _yytext
	movl	%esi, %edx
	movl	%edi, %eax
	movl	%edx, %ecx
	subl	%eax, %ecx
	movl	%ecx, %eax
	movl	%eax, _yyleng
	movb	(%esi), %al
	movb	%al, _yy_hold_char
	movb	$0, (%esi)
	movl	%esi, _yy_c_buf_p
L13:
	cmpl	$7, %ebx
	ja	L14
	movl	L23(,%ebx,4), %eax
	jmp	*%eax
	.section .rdata,"dr"
	.align 4
L23:
	.long	L15
	.long	L16
	.long	L17
	.long	L18
	.long	L19
	.long	L20
	.long	L21
	.long	L22
	.text
L15:
	movb	_yy_hold_char, %al
	movb	%al, (%esi)
	movl	_yy_last_accepting_cpos, %esi
	movl	_yy_last_accepting_state, %ebx
	jmp	L11
L16:
	movl	_yytext, %eax
	movl	%eax, 4(%esp)
	movl	$_yylval, (%esp)
	call	_strcpy
	movl	$258, %eax
	jmp	L24
L17:
	movl	_yytext, %eax
	movl	%eax, 4(%esp)
	movl	$_yylval, (%esp)
	call	_strcpy
	movl	$259, %eax
	jmp	L24
L18:
	movl	$0, %eax
	jmp	L24
L19:
	movl	_yytext, %eax
	movb	(%eax), %al
	movsbl	%al, %eax
	jmp	L24
L20:
	movl	_yyout, %ecx
	movl	_yyleng, %eax
	movl	%eax, %edx
	movl	_yytext, %eax
	movl	%ecx, 12(%esp)
	movl	$1, 8(%esp)
	movl	%edx, 4(%esp)
	movl	%eax, (%esp)
	call	_fwrite
	jmp	L25
L22:
	movl	$0, %eax
	jmp	L24
L21:
	movl	%esi, %edx
	movl	_yytext, %eax
	movl	%edx, %ecx
	subl	%eax, %ecx
	movl	%ecx, %eax
	decl	%eax
	movl	%eax, -28(%ebp)
	movb	_yy_hold_char, %al
	movb	%al, (%esi)
	movl	_yy_current_buffer, %eax
	movl	36(%eax), %eax
	testl	%eax, %eax
	jne	L26
	movl	_yy_current_buffer, %eax
	movl	16(%eax), %eax
	movl	%eax, _yy_n_chars
	movl	_yy_current_buffer, %eax
	movl	_yyin, %edx
	movl	%edx, (%eax)
	movl	_yy_current_buffer, %eax
	movl	$1, 36(%eax)
L26:
	movl	_yy_current_buffer, %eax
	movl	4(%eax), %edx
	movl	_yy_n_chars, %eax
	addl	%eax, %edx
	movl	_yy_c_buf_p, %eax
	cmpl	%eax, %edx
	jb	L27
	movl	_yytext, %edx
	movl	-28(%ebp), %eax
	addl	%edx, %eax
	movl	%eax, _yy_c_buf_p
	call	_yy_get_previous_state
	movl	%eax, %ebx
	movl	%ebx, (%esp)
	call	_yy_try_NUL_trans
	movl	%eax, -32(%ebp)
	movl	_yytext, %edi
	cmpl	$0, -32(%ebp)
	je	L28
	movl	_yy_c_buf_p, %eax
	incl	%eax
	movl	%eax, _yy_c_buf_p
	movl	_yy_c_buf_p, %esi
	movl	-32(%ebp), %ebx
	jmp	L7
L28:
	movl	_yy_c_buf_p, %esi
	jmp	L11
L27:
	call	_yy_get_next_buffer
	cmpl	$1, %eax
	je	L31
	cmpl	$2, %eax
	je	L32
	testl	%eax, %eax
	je	L30
	jmp	L29
L31:
	movl	$0, _yy_did_buffer_switch_on_eof
	call	_yywrap
	testl	%eax, %eax
	je	L33
	movl	_yytext, %eax
	movl	%eax, _yy_c_buf_p
	movl	_yy_start, %eax
	decl	%eax
	movl	%eax, %edx
	shrl	$31, %edx
	addl	%edx, %eax
	sarl	%eax
	leal	7(%eax), %ebx
	jmp	L13
L33:
	movl	_yy_did_buffer_switch_on_eof, %eax
	testl	%eax, %eax
	jne	L36
	movl	_yyin, %eax
	movl	%eax, (%esp)
	call	_yyrestart
	jmp	L36
L30:
	movl	_yytext, %edx
	movl	-28(%ebp), %eax
	addl	%edx, %eax
	movl	%eax, _yy_c_buf_p
	call	_yy_get_previous_state
	movl	%eax, %ebx
	movl	_yy_c_buf_p, %esi
	movl	_yytext, %edi
	jmp	L7
L32:
	movl	_yy_current_buffer, %eax
	movl	4(%eax), %edx
	movl	_yy_n_chars, %eax
	addl	%edx, %eax
	movl	%eax, _yy_c_buf_p
	call	_yy_get_previous_state
	movl	%eax, %ebx
	movl	_yy_c_buf_p, %esi
	movl	_yytext, %edi
	jmp	L11
L36:
	nop
L29:
	jmp	L25
L14:
	movl	$LC0, (%esp)
	call	_yy_fatal_error
	jmp	L2
L25:
	jmp	L2
L24:
	addl	$60, %esp
	popl	%ebx
	.cfi_restore 3
	popl	%esi
	.cfi_restore 6
	popl	%edi
	.cfi_restore 7
	popl	%ebp
	.cfi_restore 5
	.cfi_def_cfa 4, 4
	ret
	.cfi_endproc
LFE6:
	.section .rdata,"dr"
	.align 4
LC1:
	.ascii "fatal flex scanner internal error--end of buffer missed\0"
	.align 4
LC2:
	.ascii "fatal error - scanner input buffer overflow\0"
LC3:
	.ascii "input in flex scanner failed\0"
	.text
	.def	_yy_get_next_buffer;	.scl	3;	.type	32;	.endef
_yy_get_next_buffer:
LFB7:
	.cfi_startproc
	pushl	%ebp
	.cfi_def_cfa_offset 8
	.cfi_offset 5, -8
	movl	%esp, %ebp
	.cfi_def_cfa_register 5
	pushl	%edi
	pushl	%esi
	pushl	%ebx
	subl	$76, %esp
	.cfi_offset 7, -12
	.cfi_offset 6, -16
	.cfi_offset 3, -20
	movl	_yy_current_buffer, %eax
	movl	4(%eax), %esi
	movl	_yytext, %edi
	movl	_yy_current_buffer, %eax
	movl	4(%eax), %eax
	movl	_yy_n_chars, %edx
	incl	%edx
	addl	%eax, %edx
	movl	_yy_c_buf_p, %eax
	cmpl	%eax, %edx
	jae	L38
	movl	$LC1, (%esp)
	call	_yy_fatal_error
L38:
	movl	_yy_current_buffer, %eax
	movl	32(%eax), %eax
	testl	%eax, %eax
	jne	L39
	movl	_yy_c_buf_p, %eax
	movl	%eax, %edx
	movl	_yytext, %eax
	movl	%edx, %ecx
	subl	%eax, %ecx
	movl	%ecx, %eax
	cmpl	$1, %eax
	jne	L40
	movl	$1, %eax
	jmp	L41
L40:
	movl	$2, %eax
	jmp	L41
L39:
	movl	_yy_c_buf_p, %eax
	movl	%eax, %edx
	movl	_yytext, %eax
	movl	%edx, %ecx
	subl	%eax, %ecx
	movl	%ecx, %eax
	leal	-1(%eax), %ebx
	movl	$0, -60(%ebp)
	jmp	L42
L43:
	movb	(%edi), %al
	movb	%al, (%esi)
	incl	%esi
	incl	%edi
	incl	-60(%ebp)
L42:
	cmpl	%ebx, -60(%ebp)
	jl	L43
	movl	_yy_current_buffer, %eax
	movl	36(%eax), %eax
	cmpl	$2, %eax
	jne	L44
	movl	_yy_current_buffer, %eax
	movl	$0, _yy_n_chars
	movl	_yy_n_chars, %edx
	movl	%edx, 16(%eax)
	jmp	L45
L44:
	movl	_yy_current_buffer, %eax
	movl	12(%eax), %edx
	movl	%ebx, %eax
	movl	%edx, %ecx
	subl	%eax, %ecx
	movl	%ecx, %eax
	decl	%eax
	movl	%eax, -32(%ebp)
	jmp	L46
L52:
	movl	_yy_current_buffer, %eax
	movl	%eax, -44(%ebp)
	movl	_yy_c_buf_p, %eax
	movl	%eax, %edx
	movl	-44(%ebp), %eax
	movl	4(%eax), %eax
	movl	%edx, %ecx
	subl	%eax, %ecx
	movl	%ecx, %eax
	movl	%eax, -48(%ebp)
	movl	-44(%ebp), %eax
	movl	20(%eax), %eax
	testl	%eax, %eax
	je	L47
	movl	-44(%ebp), %eax
	movl	12(%eax), %eax
	sall	%eax
	movl	%eax, -52(%ebp)
	cmpl	$0, -52(%ebp)
	jg	L48
	movl	-44(%ebp), %eax
	movl	12(%eax), %edx
	movl	-44(%ebp), %eax
	movl	12(%eax), %eax
	shrl	$3, %eax
	addl	%eax, %edx
	movl	-44(%ebp), %eax
	movl	%edx, 12(%eax)
	jmp	L49
L48:
	movl	-44(%ebp), %eax
	movl	12(%eax), %eax
	leal	(%eax,%eax), %edx
	movl	-44(%ebp), %eax
	movl	%edx, 12(%eax)
L49:
	movl	-44(%ebp), %eax
	movl	12(%eax), %eax
	leal	2(%eax), %edx
	movl	-44(%ebp), %eax
	movl	4(%eax), %eax
	movl	%edx, 4(%esp)
	movl	%eax, (%esp)
	call	_yy_flex_realloc
	movl	-44(%ebp), %edx
	movl	%eax, 4(%edx)
	jmp	L50
L47:
	movl	-44(%ebp), %eax
	movl	$0, 4(%eax)
L50:
	movl	-44(%ebp), %eax
	movl	4(%eax), %eax
	testl	%eax, %eax
	jne	L51
	movl	$LC2, (%esp)
	call	_yy_fatal_error
L51:
	movl	-44(%ebp), %eax
	movl	4(%eax), %edx
	movl	-48(%ebp), %eax
	addl	%edx, %eax
	movl	%eax, _yy_c_buf_p
	movl	_yy_current_buffer, %eax
	movl	12(%eax), %edx
	movl	%ebx, %eax
	movl	%edx, %ecx
	subl	%eax, %ecx
	movl	%ecx, %eax
	decl	%eax
	movl	%eax, -32(%ebp)
L46:
	cmpl	$0, -32(%ebp)
	jle	L52
	cmpl	$8192, -32(%ebp)
	jle	L53
	movl	$8192, -32(%ebp)
L53:
	movl	_yy_current_buffer, %eax
	movl	24(%eax), %eax
	testl	%eax, %eax
	je	L54
	movl	$42, -36(%ebp)
	movl	$0, -40(%ebp)
	jmp	L55
L57:
	movl	_yy_current_buffer, %eax
	movl	4(%eax), %eax
	movl	%ebx, %ecx
	movl	-40(%ebp), %edx
	addl	%ecx, %edx
	addl	%eax, %edx
	movl	-36(%ebp), %eax
	movb	%al, (%edx)
	incl	-40(%ebp)
L55:
	movl	-40(%ebp), %eax
	cmpl	-32(%ebp), %eax
	jge	L56
	movl	_yyin, %eax
	movl	%eax, (%esp)
	call	_getc
	movl	%eax, -36(%ebp)
	cmpl	$-1, -36(%ebp)
	je	L56
	cmpl	$10, -36(%ebp)
	jne	L57
L56:
	cmpl	$10, -36(%ebp)
	jne	L58
	movl	_yy_current_buffer, %eax
	movl	4(%eax), %eax
	movl	-40(%ebp), %ecx
	movl	%ebx, %edx
	addl	%ecx, %edx
	addl	%eax, %edx
	movl	-36(%ebp), %eax
	movb	%al, (%edx)
	incl	-40(%ebp)
L58:
	cmpl	$-1, -36(%ebp)
	jne	L59
	movl	_yyin, %eax
	movl	12(%eax), %eax
	andl	$32, %eax
	testl	%eax, %eax
	je	L59
	movl	$LC3, (%esp)
	call	_yy_fatal_error
L59:
	movl	-40(%ebp), %eax
	movl	%eax, _yy_n_chars
	jmp	L60
L54:
	movl	_yyin, %edx
	movl	-32(%ebp), %eax
	movl	_yy_current_buffer, %ecx
	movl	4(%ecx), %esi
	movl	%ebx, %ecx
	addl	%esi, %ecx
	movl	%edx, 12(%esp)
	movl	%eax, 8(%esp)
	movl	$1, 4(%esp)
	movl	%ecx, (%esp)
	call	_fread
	movl	%eax, _yy_n_chars
	movl	_yy_n_chars, %eax
	testl	%eax, %eax
	jne	L60
	movl	_yyin, %eax
	movl	12(%eax), %eax
	andl	$32, %eax
	testl	%eax, %eax
	je	L60
	movl	$LC3, (%esp)
	call	_yy_fatal_error
L60:
	movl	_yy_current_buffer, %eax
	movl	_yy_n_chars, %edx
	movl	%edx, 16(%eax)
L45:
	movl	_yy_n_chars, %eax
	testl	%eax, %eax
	jne	L61
	testl	%ebx, %ebx
	jne	L62
	movl	$1, -28(%ebp)
	movl	_yyin, %eax
	movl	%eax, (%esp)
	call	_yyrestart
	jmp	L63
L62:
	movl	$2, -28(%ebp)
	movl	_yy_current_buffer, %eax
	movl	$2, 36(%eax)
	jmp	L63
L61:
	movl	$0, -28(%ebp)
L63:
	movl	_yy_n_chars, %eax
	addl	%ebx, %eax
	movl	%eax, _yy_n_chars
	movl	_yy_current_buffer, %eax
	movl	4(%eax), %edx
	movl	_yy_n_chars, %eax
	addl	%edx, %eax
	movb	$0, (%eax)
	movl	_yy_current_buffer, %eax
	movl	4(%eax), %eax
	movl	_yy_n_chars, %edx
	incl	%edx
	addl	%edx, %eax
	movb	$0, (%eax)
	movl	_yy_current_buffer, %eax
	movl	4(%eax), %eax
	movl	%eax, _yytext
	movl	-28(%ebp), %eax
L41:
	addl	$76, %esp
	popl	%ebx
	.cfi_restore 3
	popl	%esi
	.cfi_restore 6
	popl	%edi
	.cfi_restore 7
	popl	%ebp
	.cfi_restore 5
	.cfi_def_cfa 4, 4
	ret
	.cfi_endproc
LFE7:
	.def	_yy_get_previous_state;	.scl	3;	.type	32;	.endef
_yy_get_previous_state:
LFB8:
	.cfi_startproc
	pushl	%ebp
	.cfi_def_cfa_offset 8
	.cfi_offset 5, -8
	movl	%esp, %ebp
	.cfi_def_cfa_register 5
	pushl	%edi
	pushl	%esi
	pushl	%ebx
	.cfi_offset 7, -12
	.cfi_offset 6, -16
	.cfi_offset 3, -20
	movl	_yy_start, %ebx
	movl	_yytext, %esi
	jmp	L65
L71:
	movb	(%esi), %al
	testb	%al, %al
	je	L66
	movb	(%esi), %al
	movzbl	%al, %eax
	movl	_yy_ec(,%eax,4), %eax
	jmp	L67
L66:
	movb	$1, %al
L67:
	movl	%eax, %edi
	movw	_yy_accept(%ebx,%ebx), %ax
	testw	%ax, %ax
	je	L73
	movl	%ebx, _yy_last_accepting_state
	movl	%esi, _yy_last_accepting_cpos
	jmp	L73
L70:
	movw	_yy_def(%ebx,%ebx), %ax
	movswl	%ax, %ebx
	cmpl	$10, %ebx
	jle	L69
	movl	%edi, %edx
	movzbl	%dl, %eax
	movl	_yy_meta(,%eax,4), %eax
	movl	%eax, %edi
	jmp	L69
L73:
	nop
L69:
	movw	_yy_base(%ebx,%ebx), %ax
	movswl	%ax, %edx
	movl	%edi, %ecx
	movzbl	%cl, %eax
	addl	%edx, %eax
	movw	_yy_chk(%eax,%eax), %ax
	cwtl
	cmpl	%ebx, %eax
	jne	L70
	movw	_yy_base(%ebx,%ebx), %ax
	movswl	%ax, %edx
	movl	%edi, %ecx
	movzbl	%cl, %eax
	addl	%edx, %eax
	movw	_yy_nxt(%eax,%eax), %ax
	movswl	%ax, %ebx
	incl	%esi
L65:
	movl	_yy_c_buf_p, %eax
	cmpl	%eax, %esi
	jb	L71
	movl	%ebx, %eax
	popl	%ebx
	.cfi_restore 3
	popl	%esi
	.cfi_restore 6
	popl	%edi
	.cfi_restore 7
	popl	%ebp
	.cfi_restore 5
	.cfi_def_cfa 4, 4
	ret
	.cfi_endproc
LFE8:
	.def	_yy_try_NUL_trans;	.scl	3;	.type	32;	.endef
_yy_try_NUL_trans:
LFB9:
	.cfi_startproc
	pushl	%ebp
	.cfi_def_cfa_offset 8
	.cfi_offset 5, -8
	movl	%esp, %ebp
	.cfi_def_cfa_register 5
	pushl	%esi
	pushl	%ebx
	.cfi_offset 6, -12
	.cfi_offset 3, -16
	movl	_yy_c_buf_p, %esi
	movb	$1, %bl
	movl	8(%ebp), %eax
	movw	_yy_accept(%eax,%eax), %ax
	testw	%ax, %ax
	je	L81
	movl	8(%ebp), %eax
	movl	%eax, _yy_last_accepting_state
	movl	%esi, _yy_last_accepting_cpos
	jmp	L81
L77:
	movl	8(%ebp), %eax
	movw	_yy_def(%eax,%eax), %ax
	cwtl
	movl	%eax, 8(%ebp)
	cmpl	$10, 8(%ebp)
	jle	L76
	movzbl	%bl, %eax
	movl	_yy_meta(,%eax,4), %eax
	movb	%al, %bl
	jmp	L76
L81:
	nop
L76:
	movl	8(%ebp), %eax
	movw	_yy_base(%eax,%eax), %ax
	movswl	%ax, %edx
	movzbl	%bl, %eax
	addl	%edx, %eax
	movw	_yy_chk(%eax,%eax), %ax
	cwtl
	cmpl	8(%ebp), %eax
	jne	L77
	movl	8(%ebp), %eax
	movw	_yy_base(%eax,%eax), %ax
	movswl	%ax, %edx
	movzbl	%bl, %eax
	addl	%edx, %eax
	movw	_yy_nxt(%eax,%eax), %ax
	cwtl
	movl	%eax, 8(%ebp)
	cmpl	$10, 8(%ebp)
	sete	%al
	movzbl	%al, %ebx
	testl	%ebx, %ebx
	jne	L78
	movl	8(%ebp), %eax
	jmp	L79
L78:
	movl	$0, %eax
L79:
	popl	%ebx
	.cfi_restore 3
	popl	%esi
	.cfi_restore 6
	popl	%ebp
	.cfi_restore 5
	.cfi_def_cfa 4, 4
	ret
	.cfi_endproc
LFE9:
	.section .rdata,"dr"
	.align 4
LC4:
	.ascii "flex scanner push-back overflow\0"
	.text
	.def	_yyunput;	.scl	3;	.type	32;	.endef
_yyunput:
LFB10:
	.cfi_startproc
	pushl	%ebp
	.cfi_def_cfa_offset 8
	.cfi_offset 5, -8
	movl	%esp, %ebp
	.cfi_def_cfa_register 5
	pushl	%edi
	pushl	%esi
	pushl	%ebx
	subl	$28, %esp
	.cfi_offset 7, -12
	.cfi_offset 6, -16
	.cfi_offset 3, -20
	movl	_yy_c_buf_p, %ebx
	movb	_yy_hold_char, %al
	movb	%al, (%ebx)
	movl	_yy_current_buffer, %eax
	movl	4(%eax), %eax
	addl	$2, %eax
	cmpl	%ebx, %eax
	jbe	L83
	movl	_yy_n_chars, %eax
	leal	2(%eax), %esi
	movl	_yy_current_buffer, %eax
	movl	4(%eax), %edx
	movl	_yy_current_buffer, %eax
	movl	12(%eax), %eax
	addl	$2, %eax
	leal	(%edx,%eax), %edi
	movl	_yy_current_buffer, %eax
	movl	4(%eax), %edx
	movl	%esi, %eax
	leal	(%edx,%eax), %esi
	jmp	L84
L85:
	decl	%edi
	decl	%esi
	movb	(%esi), %al
	movb	%al, (%edi)
L84:
	movl	_yy_current_buffer, %eax
	movl	4(%eax), %eax
	cmpl	%esi, %eax
	jb	L85
	movl	%edi, %edx
	movl	%esi, %eax
	movl	%edx, %ecx
	subl	%eax, %ecx
	movl	%ecx, %eax
	addl	%eax, %ebx
	movl	%edi, %edx
	movl	%esi, %eax
	movl	%edx, %ecx
	subl	%eax, %ecx
	movl	%ecx, %eax
	addl	%eax, 12(%ebp)
	movl	_yy_current_buffer, %eax
	movl	_yy_current_buffer, %edx
	movl	12(%edx), %edx
	movl	%edx, _yy_n_chars
	movl	_yy_n_chars, %edx
	movl	%edx, 16(%eax)
	movl	_yy_current_buffer, %eax
	movl	4(%eax), %eax
	addl	$2, %eax
	cmpl	%ebx, %eax
	jbe	L83
	movl	$LC4, (%esp)
	call	_yy_fatal_error
L83:
	decl	%ebx
	movl	8(%ebp), %eax
	movb	%al, (%ebx)
	movl	12(%ebp), %eax
	movl	%eax, _yytext
	movb	(%ebx), %al
	movb	%al, _yy_hold_char
	movl	%ebx, _yy_c_buf_p
	addl	$28, %esp
	popl	%ebx
	.cfi_restore 3
	popl	%esi
	.cfi_restore 6
	popl	%edi
	.cfi_restore 7
	popl	%ebp
	.cfi_restore 5
	.cfi_def_cfa 4, 4
	ret
	.cfi_endproc
LFE10:
	.def	_input;	.scl	3;	.type	32;	.endef
_input:
LFB11:
	.cfi_startproc
	pushl	%ebp
	.cfi_def_cfa_offset 8
	.cfi_offset 5, -8
	movl	%esp, %ebp
	.cfi_def_cfa_register 5
	subl	$40, %esp
	movl	_yy_c_buf_p, %eax
	movb	_yy_hold_char, %dl
	movb	%dl, (%eax)
	movl	_yy_c_buf_p, %eax
	movb	(%eax), %al
	testb	%al, %al
	jne	L87
	movl	_yy_current_buffer, %eax
	movl	4(%eax), %edx
	movl	_yy_n_chars, %eax
	addl	%eax, %edx
	movl	_yy_c_buf_p, %eax
	cmpl	%eax, %edx
	jbe	L88
	movl	_yy_c_buf_p, %eax
	movb	$0, (%eax)
	jmp	L87
L88:
	movl	_yy_c_buf_p, %eax
	movl	%eax, %edx
	movl	_yytext, %eax
	movl	%edx, %ecx
	subl	%eax, %ecx
	movl	%ecx, %eax
	movl	%eax, -12(%ebp)
	movl	_yy_c_buf_p, %eax
	incl	%eax
	movl	%eax, _yy_c_buf_p
	call	_yy_get_next_buffer
	cmpl	$1, %eax
	je	L90
	cmpl	$2, %eax
	je	L91
	testl	%eax, %eax
	je	L89
	jmp	L87
L91:
	movl	_yyin, %eax
	movl	%eax, (%esp)
	call	_yyrestart
L90:
	call	_yywrap
	testl	%eax, %eax
	je	L92
	movl	$-1, %eax
	jmp	L93
L92:
	movl	_yy_did_buffer_switch_on_eof, %eax
	testl	%eax, %eax
	jne	L94
	movl	_yyin, %eax
	movl	%eax, (%esp)
	call	_yyrestart
L94:
	call	_input
	jmp	L93
L89:
	movl	_yytext, %edx
	movl	-12(%ebp), %eax
	addl	%edx, %eax
	movl	%eax, _yy_c_buf_p
	nop
L87:
	movl	_yy_c_buf_p, %eax
	movb	(%eax), %al
	movzbl	%al, %eax
	movl	%eax, -16(%ebp)
	movl	_yy_c_buf_p, %eax
	movb	$0, (%eax)
	movl	_yy_c_buf_p, %eax
	incl	%eax
	movl	%eax, _yy_c_buf_p
	movl	_yy_c_buf_p, %eax
	movb	(%eax), %al
	movb	%al, _yy_hold_char
	movl	-16(%ebp), %eax
L93:
	leave
	.cfi_restore 5
	.cfi_def_cfa 4, 4
	ret
	.cfi_endproc
LFE11:
	.globl	_yyrestart
	.def	_yyrestart;	.scl	2;	.type	32;	.endef
_yyrestart:
LFB12:
	.cfi_startproc
	pushl	%ebp
	.cfi_def_cfa_offset 8
	.cfi_offset 5, -8
	movl	%esp, %ebp
	.cfi_def_cfa_register 5
	subl	$24, %esp
	movl	_yy_current_buffer, %eax
	testl	%eax, %eax
	jne	L96
	movl	_yyin, %eax
	movl	$16384, 4(%esp)
	movl	%eax, (%esp)
	call	_yy_create_buffer
	movl	%eax, _yy_current_buffer
L96:
	movl	_yy_current_buffer, %eax
	movl	8(%ebp), %edx
	movl	%edx, 4(%esp)
	movl	%eax, (%esp)
	call	_yy_init_buffer
	call	_yy_load_buffer_state
	leave
	.cfi_restore 5
	.cfi_def_cfa 4, 4
	ret
	.cfi_endproc
LFE12:
	.globl	_yy_switch_to_buffer
	.def	_yy_switch_to_buffer;	.scl	2;	.type	32;	.endef
_yy_switch_to_buffer:
LFB13:
	.cfi_startproc
	pushl	%ebp
	.cfi_def_cfa_offset 8
	.cfi_offset 5, -8
	movl	%esp, %ebp
	.cfi_def_cfa_register 5
	subl	$8, %esp
	movl	_yy_current_buffer, %eax
	cmpl	8(%ebp), %eax
	je	L101
L98:
	movl	_yy_current_buffer, %eax
	testl	%eax, %eax
	je	L100
	movl	_yy_c_buf_p, %eax
	movb	_yy_hold_char, %dl
	movb	%dl, (%eax)
	movl	_yy_current_buffer, %eax
	movl	_yy_c_buf_p, %edx
	movl	%edx, 8(%eax)
	movl	_yy_current_buffer, %eax
	movl	_yy_n_chars, %edx
	movl	%edx, 16(%eax)
L100:
	movl	8(%ebp), %eax
	movl	%eax, _yy_current_buffer
	call	_yy_load_buffer_state
	movl	$1, _yy_did_buffer_switch_on_eof
	jmp	L97
L101:
	nop
L97:
	leave
	.cfi_restore 5
	.cfi_def_cfa 4, 4
	ret
	.cfi_endproc
LFE13:
	.globl	_yy_load_buffer_state
	.def	_yy_load_buffer_state;	.scl	2;	.type	32;	.endef
_yy_load_buffer_state:
LFB14:
	.cfi_startproc
	pushl	%ebp
	.cfi_def_cfa_offset 8
	.cfi_offset 5, -8
	movl	%esp, %ebp
	.cfi_def_cfa_register 5
	movl	_yy_current_buffer, %eax
	movl	16(%eax), %eax
	movl	%eax, _yy_n_chars
	movl	_yy_current_buffer, %eax
	movl	8(%eax), %eax
	movl	%eax, _yy_c_buf_p
	movl	_yy_c_buf_p, %eax
	movl	%eax, _yytext
	movl	_yy_current_buffer, %eax
	movl	(%eax), %eax
	movl	%eax, _yyin
	movl	_yy_c_buf_p, %eax
	movb	(%eax), %al
	movb	%al, _yy_hold_char
	popl	%ebp
	.cfi_restore 5
	.cfi_def_cfa 4, 4
	ret
	.cfi_endproc
LFE14:
	.section .rdata,"dr"
	.align 4
LC5:
	.ascii "out of dynamic memory in yy_create_buffer()\0"
	.text
	.globl	_yy_create_buffer
	.def	_yy_create_buffer;	.scl	2;	.type	32;	.endef
_yy_create_buffer:
LFB15:
	.cfi_startproc
	pushl	%ebp
	.cfi_def_cfa_offset 8
	.cfi_offset 5, -8
	movl	%esp, %ebp
	.cfi_def_cfa_register 5
	subl	$40, %esp
	movl	$40, (%esp)
	call	_yy_flex_alloc
	movl	%eax, -12(%ebp)
	cmpl	$0, -12(%ebp)
	jne	L104
	movl	$LC5, (%esp)
	call	_yy_fatal_error
L104:
	movl	12(%ebp), %edx
	movl	-12(%ebp), %eax
	movl	%edx, 12(%eax)
	movl	-12(%ebp), %eax
	movl	12(%eax), %eax
	addl	$2, %eax
	movl	%eax, (%esp)
	call	_yy_flex_alloc
	movl	-12(%ebp), %edx
	movl	%eax, 4(%edx)
	movl	-12(%ebp), %eax
	movl	4(%eax), %eax
	testl	%eax, %eax
	jne	L105
	movl	$LC5, (%esp)
	call	_yy_fatal_error
L105:
	movl	-12(%ebp), %eax
	movl	$1, 20(%eax)
	movl	8(%ebp), %eax
	movl	%eax, 4(%esp)
	movl	-12(%ebp), %eax
	movl	%eax, (%esp)
	call	_yy_init_buffer
	movl	-12(%ebp), %eax
	leave
	.cfi_restore 5
	.cfi_def_cfa 4, 4
	ret
	.cfi_endproc
LFE15:
	.globl	_yy_delete_buffer
	.def	_yy_delete_buffer;	.scl	2;	.type	32;	.endef
_yy_delete_buffer:
LFB16:
	.cfi_startproc
	pushl	%ebp
	.cfi_def_cfa_offset 8
	.cfi_offset 5, -8
	movl	%esp, %ebp
	.cfi_def_cfa_register 5
	subl	$24, %esp
	cmpl	$0, 8(%ebp)
	je	L112
L108:
	movl	_yy_current_buffer, %eax
	cmpl	%eax, 8(%ebp)
	jne	L110
	movl	$0, _yy_current_buffer
L110:
	movl	8(%ebp), %eax
	movl	20(%eax), %eax
	testl	%eax, %eax
	je	L111
	movl	8(%ebp), %eax
	movl	4(%eax), %eax
	movl	%eax, (%esp)
	call	_yy_flex_free
L111:
	movl	8(%ebp), %eax
	movl	%eax, (%esp)
	call	_yy_flex_free
	jmp	L107
L112:
	nop
L107:
	leave
	.cfi_restore 5
	.cfi_def_cfa 4, 4
	ret
	.cfi_endproc
LFE16:
	.globl	_yy_init_buffer
	.def	_yy_init_buffer;	.scl	2;	.type	32;	.endef
_yy_init_buffer:
LFB17:
	.cfi_startproc
	pushl	%ebp
	.cfi_def_cfa_offset 8
	.cfi_offset 5, -8
	movl	%esp, %ebp
	.cfi_def_cfa_register 5
	subl	$24, %esp
	movl	8(%ebp), %eax
	movl	%eax, (%esp)
	call	_yy_flush_buffer
	movl	8(%ebp), %eax
	movl	12(%ebp), %edx
	movl	%edx, (%eax)
	movl	8(%ebp), %eax
	movl	$1, 32(%eax)
	cmpl	$0, 12(%ebp)
	je	L114
	movl	12(%ebp), %eax
	movl	16(%eax), %eax
	movl	%eax, (%esp)
	call	_isatty
	testl	%eax, %eax
	jle	L114
	movl	$1, %eax
	jmp	L115
L114:
	movl	$0, %eax
L115:
	movl	8(%ebp), %edx
	movl	%eax, 24(%edx)
	leave
	.cfi_restore 5
	.cfi_def_cfa 4, 4
	ret
	.cfi_endproc
LFE17:
	.globl	_yy_flush_buffer
	.def	_yy_flush_buffer;	.scl	2;	.type	32;	.endef
_yy_flush_buffer:
LFB18:
	.cfi_startproc
	pushl	%ebp
	.cfi_def_cfa_offset 8
	.cfi_offset 5, -8
	movl	%esp, %ebp
	.cfi_def_cfa_register 5
	cmpl	$0, 8(%ebp)
	je	L119
L117:
	movl	8(%ebp), %eax
	movl	$0, 16(%eax)
	movl	8(%ebp), %eax
	movl	4(%eax), %eax
	movb	$0, (%eax)
	movl	8(%ebp), %eax
	movl	4(%eax), %eax
	incl	%eax
	movb	$0, (%eax)
	movl	8(%ebp), %eax
	movl	4(%eax), %edx
	movl	8(%ebp), %eax
	movl	%edx, 8(%eax)
	movl	8(%ebp), %eax
	movl	$1, 28(%eax)
	movl	8(%ebp), %eax
	movl	$0, 36(%eax)
	movl	_yy_current_buffer, %eax
	cmpl	%eax, 8(%ebp)
	jne	L116
	call	_yy_load_buffer_state
	jmp	L116
L119:
	nop
L116:
	popl	%ebp
	.cfi_restore 5
	.cfi_def_cfa 4, 4
	ret
	.cfi_endproc
LFE18:
	.section .rdata,"dr"
	.align 4
LC6:
	.ascii "out of dynamic memory in yy_scan_buffer()\0"
	.text
	.globl	_yy_scan_buffer
	.def	_yy_scan_buffer;	.scl	2;	.type	32;	.endef
_yy_scan_buffer:
LFB19:
	.cfi_startproc
	pushl	%ebp
	.cfi_def_cfa_offset 8
	.cfi_offset 5, -8
	movl	%esp, %ebp
	.cfi_def_cfa_register 5
	subl	$40, %esp
	cmpl	$1, 12(%ebp)
	jbe	L121
	movl	12(%ebp), %eax
	leal	-2(%eax), %edx
	movl	8(%ebp), %eax
	addl	%edx, %eax
	movb	(%eax), %al
	testb	%al, %al
	jne	L121
	movl	12(%ebp), %eax
	leal	-1(%eax), %edx
	movl	8(%ebp), %eax
	addl	%edx, %eax
	movb	(%eax), %al
	testb	%al, %al
	je	L122
L121:
	movl	$0, %eax
	jmp	L123
L122:
	movl	$40, (%esp)
	call	_yy_flex_alloc
	movl	%eax, -12(%ebp)
	cmpl	$0, -12(%ebp)
	jne	L124
	movl	$LC6, (%esp)
	call	_yy_fatal_error
L124:
	movl	12(%ebp), %eax
	leal	-2(%eax), %edx
	movl	-12(%ebp), %eax
	movl	%edx, 12(%eax)
	movl	-12(%ebp), %eax
	movl	8(%ebp), %edx
	movl	%edx, 4(%eax)
	movl	-12(%ebp), %eax
	movl	4(%eax), %edx
	movl	-12(%ebp), %eax
	movl	%edx, 8(%eax)
	movl	-12(%ebp), %eax
	movl	$0, 20(%eax)
	movl	-12(%ebp), %eax
	movl	$0, (%eax)
	movl	-12(%ebp), %eax
	movl	12(%eax), %eax
	movl	%eax, %edx
	movl	-12(%ebp), %eax
	movl	%edx, 16(%eax)
	movl	-12(%ebp), %eax
	movl	$0, 24(%eax)
	movl	-12(%ebp), %eax
	movl	$1, 28(%eax)
	movl	-12(%ebp), %eax
	movl	$0, 32(%eax)
	movl	-12(%ebp), %eax
	movl	$0, 36(%eax)
	movl	-12(%ebp), %eax
	movl	%eax, (%esp)
	call	_yy_switch_to_buffer
	movl	-12(%ebp), %eax
L123:
	leave
	.cfi_restore 5
	.cfi_def_cfa 4, 4
	ret
	.cfi_endproc
LFE19:
	.globl	_yy_scan_string
	.def	_yy_scan_string;	.scl	2;	.type	32;	.endef
_yy_scan_string:
LFB20:
	.cfi_startproc
	pushl	%ebp
	.cfi_def_cfa_offset 8
	.cfi_offset 5, -8
	movl	%esp, %ebp
	.cfi_def_cfa_register 5
	subl	$40, %esp
	movl	$0, -12(%ebp)
	jmp	L126
L127:
	incl	-12(%ebp)
L126:
	movl	-12(%ebp), %edx
	movl	8(%ebp), %eax
	addl	%edx, %eax
	movb	(%eax), %al
	testb	%al, %al
	jne	L127
	movl	-12(%ebp), %eax
	movl	%eax, 4(%esp)
	movl	8(%ebp), %eax
	movl	%eax, (%esp)
	call	_yy_scan_bytes
	leave
	.cfi_restore 5
	.cfi_def_cfa 4, 4
	ret
	.cfi_endproc
LFE20:
	.section .rdata,"dr"
	.align 4
LC7:
	.ascii "out of dynamic memory in yy_scan_bytes()\0"
LC8:
	.ascii "bad buffer in yy_scan_bytes()\0"
	.text
	.globl	_yy_scan_bytes
	.def	_yy_scan_bytes;	.scl	2;	.type	32;	.endef
_yy_scan_bytes:
LFB21:
	.cfi_startproc
	pushl	%ebp
	.cfi_def_cfa_offset 8
	.cfi_offset 5, -8
	movl	%esp, %ebp
	.cfi_def_cfa_register 5
	subl	$40, %esp
	movl	12(%ebp), %eax
	addl	$2, %eax
	movl	%eax, -16(%ebp)
	movl	-16(%ebp), %eax
	movl	%eax, (%esp)
	call	_yy_flex_alloc
	movl	%eax, -20(%ebp)
	cmpl	$0, -20(%ebp)
	jne	L130
	movl	$LC7, (%esp)
	call	_yy_fatal_error
L130:
	movl	$0, -12(%ebp)
	jmp	L131
L132:
	movl	-12(%ebp), %edx
	movl	-20(%ebp), %eax
	addl	%eax, %edx
	movl	-12(%ebp), %ecx
	movl	8(%ebp), %eax
	addl	%ecx, %eax
	movb	(%eax), %al
	movb	%al, (%edx)
	incl	-12(%ebp)
L131:
	movl	-12(%ebp), %eax
	cmpl	12(%ebp), %eax
	jl	L132
	movl	12(%ebp), %edx
	movl	-20(%ebp), %eax
	addl	%eax, %edx
	movl	12(%ebp), %eax
	leal	1(%eax), %ecx
	movl	-20(%ebp), %eax
	addl	%ecx, %eax
	movb	$0, (%eax)
	movb	(%eax), %al
	movb	%al, (%edx)
	movl	-16(%ebp), %eax
	movl	%eax, 4(%esp)
	movl	-20(%ebp), %eax
	movl	%eax, (%esp)
	call	_yy_scan_buffer
	movl	%eax, -24(%ebp)
	cmpl	$0, -24(%ebp)
	jne	L133
	movl	$LC8, (%esp)
	call	_yy_fatal_error
L133:
	movl	-24(%ebp), %eax
	movl	$1, 20(%eax)
	movl	-24(%ebp), %eax
	leave
	.cfi_restore 5
	.cfi_def_cfa 4, 4
	ret
	.cfi_endproc
LFE21:
	.section .rdata,"dr"
LC9:
	.ascii "%s\12\0"
	.text
	.def	_yy_fatal_error;	.scl	3;	.type	32;	.endef
_yy_fatal_error:
LFB22:
	.cfi_startproc
	pushl	%ebp
	.cfi_def_cfa_offset 8
	.cfi_offset 5, -8
	movl	%esp, %ebp
	.cfi_def_cfa_register 5
	subl	$24, %esp
	movl	8(%ebp), %eax
	movl	%eax, 8(%esp)
	movl	$LC9, 4(%esp)
	movl	__imp___iob, %eax
	addl	$64, %eax
	movl	%eax, (%esp)
	call	_fprintf
	movl	$2, (%esp)
	call	_exit
	.cfi_endproc
LFE22:
	.def	_yy_flex_alloc;	.scl	3;	.type	32;	.endef
_yy_flex_alloc:
LFB23:
	.cfi_startproc
	pushl	%ebp
	.cfi_def_cfa_offset 8
	.cfi_offset 5, -8
	movl	%esp, %ebp
	.cfi_def_cfa_register 5
	subl	$24, %esp
	movl	8(%ebp), %eax
	movl	%eax, (%esp)
	call	_malloc
	leave
	.cfi_restore 5
	.cfi_def_cfa 4, 4
	ret
	.cfi_endproc
LFE23:
	.def	_yy_flex_realloc;	.scl	3;	.type	32;	.endef
_yy_flex_realloc:
LFB24:
	.cfi_startproc
	pushl	%ebp
	.cfi_def_cfa_offset 8
	.cfi_offset 5, -8
	movl	%esp, %ebp
	.cfi_def_cfa_register 5
	subl	$24, %esp
	movl	12(%ebp), %eax
	movl	%eax, 4(%esp)
	movl	8(%ebp), %eax
	movl	%eax, (%esp)
	call	_realloc
	leave
	.cfi_restore 5
	.cfi_def_cfa 4, 4
	ret
	.cfi_endproc
LFE24:
	.def	_yy_flex_free;	.scl	3;	.type	32;	.endef
_yy_flex_free:
LFB25:
	.cfi_startproc
	pushl	%ebp
	.cfi_def_cfa_offset 8
	.cfi_offset 5, -8
	movl	%esp, %ebp
	.cfi_def_cfa_register 5
	subl	$24, %esp
	movl	8(%ebp), %eax
	movl	%eax, (%esp)
	call	_free
	leave
	.cfi_restore 5
	.cfi_def_cfa 4, 4
	ret
	.cfi_endproc
LFE25:
	.globl	_yywrap
	.def	_yywrap;	.scl	2;	.type	32;	.endef
_yywrap:
LFB26:
	.cfi_startproc
	pushl	%ebp
	.cfi_def_cfa_offset 8
	.cfi_offset 5, -8
	movl	%esp, %ebp
	.cfi_def_cfa_register 5
	movl	$1, %eax
	popl	%ebp
	.cfi_restore 5
	.cfi_def_cfa 4, 4
	ret
	.cfi_endproc
LFE26:
	.def	_strcpy;	.scl	2;	.type	32;	.endef
	.def	_fwrite;	.scl	2;	.type	32;	.endef
	.def	_getc;	.scl	2;	.type	32;	.endef
	.def	_fread;	.scl	2;	.type	32;	.endef
	.def	_isatty;	.scl	2;	.type	32;	.endef
	.def	_fprintf;	.scl	2;	.type	32;	.endef
	.def	_exit;	.scl	2;	.type	32;	.endef
	.def	_malloc;	.scl	2;	.type	32;	.endef
	.def	_realloc;	.scl	2;	.type	32;	.endef
	.def	_free;	.scl	2;	.type	32;	.endef
