	.file	"teach5a.tab.c"
	.globl	_tempcount
	.bss
	.align 4
_tempcount:
	.space 4
	.globl	_top
	.data
	.align 4
_top:
	.long	-1
	.section .rdata,"dr"
	.align 32
_yytranslate:
	.byte	0
	.byte	2
	.byte	2
	.byte	2
	.byte	2
	.byte	2
	.byte	2
	.byte	2
	.byte	2
	.byte	2
	.byte	2
	.byte	2
	.byte	2
	.byte	2
	.byte	2
	.byte	2
	.byte	2
	.byte	2
	.byte	2
	.byte	2
	.byte	2
	.byte	2
	.byte	2
	.byte	2
	.byte	2
	.byte	2
	.byte	2
	.byte	2
	.byte	2
	.byte	2
	.byte	2
	.byte	2
	.byte	2
	.byte	2
	.byte	2
	.byte	2
	.byte	2
	.byte	2
	.byte	2
	.byte	2
	.byte	10
	.byte	11
	.byte	5
	.byte	3
	.byte	2
	.byte	4
	.byte	2
	.byte	6
	.byte	2
	.byte	2
	.byte	2
	.byte	2
	.byte	2
	.byte	2
	.byte	2
	.byte	2
	.byte	2
	.byte	2
	.byte	2
	.byte	2
	.byte	2
	.byte	9
	.byte	2
	.byte	2
	.byte	2
	.byte	2
	.byte	2
	.byte	2
	.byte	2
	.byte	2
	.byte	2
	.byte	2
	.byte	2
	.byte	2
	.byte	2
	.byte	2
	.byte	2
	.byte	2
	.byte	2
	.byte	2
	.byte	2
	.byte	2
	.byte	2
	.byte	2
	.byte	2
	.byte	2
	.byte	2
	.byte	2
	.byte	2
	.byte	2
	.byte	2
	.byte	2
	.byte	2
	.byte	2
	.byte	2
	.byte	2
	.byte	2
	.byte	2
	.byte	2
	.byte	2
	.byte	2
	.byte	2
	.byte	2
	.byte	2
	.byte	2
	.byte	2
	.byte	2
	.byte	2
	.byte	2
	.byte	2
	.byte	2
	.byte	2
	.byte	2
	.byte	2
	.byte	2
	.byte	2
	.byte	2
	.byte	2
	.byte	2
	.byte	2
	.byte	2
	.byte	2
	.byte	2
	.byte	2
	.byte	2
	.byte	2
	.byte	2
	.byte	2
	.byte	2
	.byte	2
	.byte	2
	.byte	2
	.byte	2
	.byte	2
	.byte	2
	.byte	2
	.byte	2
	.byte	2
	.byte	2
	.byte	2
	.byte	2
	.byte	2
	.byte	2
	.byte	2
	.byte	2
	.byte	2
	.byte	2
	.byte	2
	.byte	2
	.byte	2
	.byte	2
	.byte	2
	.byte	2
	.byte	2
	.byte	2
	.byte	2
	.byte	2
	.byte	2
	.byte	2
	.byte	2
	.byte	2
	.byte	2
	.byte	2
	.byte	2
	.byte	2
	.byte	2
	.byte	2
	.byte	2
	.byte	2
	.byte	2
	.byte	2
	.byte	2
	.byte	2
	.byte	2
	.byte	2
	.byte	2
	.byte	2
	.byte	2
	.byte	2
	.byte	2
	.byte	2
	.byte	2
	.byte	2
	.byte	2
	.byte	2
	.byte	2
	.byte	2
	.byte	2
	.byte	2
	.byte	2
	.byte	2
	.byte	2
	.byte	2
	.byte	2
	.byte	2
	.byte	2
	.byte	2
	.byte	2
	.byte	2
	.byte	2
	.byte	2
	.byte	2
	.byte	2
	.byte	2
	.byte	2
	.byte	2
	.byte	2
	.byte	2
	.byte	2
	.byte	2
	.byte	2
	.byte	2
	.byte	2
	.byte	2
	.byte	2
	.byte	2
	.byte	2
	.byte	2
	.byte	2
	.byte	2
	.byte	2
	.byte	2
	.byte	2
	.byte	2
	.byte	2
	.byte	2
	.byte	2
	.byte	2
	.byte	2
	.byte	2
	.byte	2
	.byte	2
	.byte	2
	.byte	2
	.byte	2
	.byte	2
	.byte	2
	.byte	2
	.byte	2
	.byte	2
	.byte	2
	.byte	2
	.byte	2
	.byte	2
	.byte	2
	.byte	2
	.byte	2
	.byte	2
	.byte	2
	.byte	2
	.byte	2
	.byte	2
	.byte	2
	.byte	2
	.byte	2
	.byte	2
	.byte	1
	.byte	2
	.byte	7
	.byte	8
_yyr1:
	.byte	0
	.byte	12
	.byte	13
	.byte	14
	.byte	14
	.byte	14
	.byte	14
	.byte	14
	.byte	14
	.byte	14
_yyr2:
	.byte	0
	.byte	2
	.byte	3
	.byte	3
	.byte	3
	.byte	3
	.byte	3
	.byte	3
	.byte	1
	.byte	1
_yydefact:
	.byte	0
	.byte	0
	.byte	0
	.byte	0
	.byte	1
	.byte	9
	.byte	8
	.byte	0
	.byte	2
	.byte	0
	.byte	0
	.byte	0
	.byte	0
	.byte	0
	.byte	3
	.byte	4
	.byte	5
	.byte	6
	.byte	7
_yydefgoto:
	.byte	-1
	.byte	2
	.byte	8
_yypact:
	.byte	-2
	.byte	-5
	.byte	7
	.byte	11
	.byte	-6
	.byte	-6
	.byte	-6
	.byte	11
	.byte	10
	.byte	-3
	.byte	11
	.byte	11
	.byte	11
	.byte	11
	.byte	-6
	.byte	17
	.byte	17
	.byte	-6
	.byte	-6
_yypgoto:
	.byte	-6
	.byte	-6
	.byte	-1
_yytable:
	.byte	10
	.byte	11
	.byte	12
	.byte	13
	.byte	3
	.byte	1
	.byte	9
	.byte	4
	.byte	14
	.byte	15
	.byte	16
	.byte	17
	.byte	18
	.byte	10
	.byte	11
	.byte	12
	.byte	13
	.byte	0
	.byte	5
	.byte	6
	.byte	0
	.byte	7
	.byte	12
	.byte	13
_yycheck:
	.byte	3
	.byte	4
	.byte	5
	.byte	6
	.byte	9
	.byte	7
	.byte	7
	.byte	0
	.byte	11
	.byte	10
	.byte	11
	.byte	12
	.byte	13
	.byte	3
	.byte	4
	.byte	5
	.byte	6
	.byte	-1
	.byte	7
	.byte	8
	.byte	-1
	.byte	10
	.byte	5
	.byte	6
_yystos:
	.byte	0
	.byte	7
	.byte	13
	.byte	9
	.byte	0
	.byte	7
	.byte	8
	.byte	10
	.byte	14
	.byte	14
	.byte	3
	.byte	4
	.byte	5
	.byte	6
	.byte	11
	.byte	14
	.byte	14
	.byte	14
	.byte	14
LC0:
	.ascii "Deleting\0"
	.text
	.def	_yydestruct;	.scl	3;	.type	32;	.endef
_yydestruct:
LFB6:
	.cfi_startproc
	pushl	%ebp
	.cfi_def_cfa_offset 8
	.cfi_offset 5, -8
	movl	%esp, %ebp
	.cfi_def_cfa_register 5
	cmpl	$0, 8(%ebp)
	jne	L3
	movl	$LC0, 8(%ebp)
L3:
	nop
L1:
	popl	%ebp
	.cfi_restore 5
	.cfi_def_cfa 4, 4
	ret
	.cfi_endproc
LFE6:
	.comm	_yychar, 4, 2
	.comm	_yylval, 30, 0
	.comm	_yynerrs, 4, 2
	.section .rdata,"dr"
LC1:
	.ascii "\12%s=%s\12\0"
LC2:
	.ascii "\12%s=%s+%s\0"
LC3:
	.ascii "\12%s=%s-%s\0"
LC4:
	.ascii "\12%s=%s*%s\0"
LC5:
	.ascii "\12%s=%s/%s\0"
LC6:
	.ascii "syntax error\0"
LC7:
	.ascii "Error: discarding\0"
LC8:
	.ascii "Error: popping\0"
LC9:
	.ascii "memory exhausted\0"
LC10:
	.ascii "Cleanup: discarding lookahead\0"
LC11:
	.ascii "Cleanup: popping\0"
	.text
	.globl	_yyparse
	.def	_yyparse;	.scl	2;	.type	32;	.endef
_yyparse:
LFB7:
	.cfi_startproc
	pushl	%ebp
	.cfi_def_cfa_offset 8
	.cfi_offset 5, -8
	movl	%esp, %ebp
	.cfi_def_cfa_register 5
	pushl	%edi
	pushl	%esi
	pushl	%ebx
	movl	$6540, %eax
	call	___chkstk_ms
	subl	%eax, %esp
	.cfi_offset 7, -12
	.cfi_offset 6, -16
	.cfi_offset 3, -20
	movl	$0, -64(%ebp)
	movl	$0, -68(%ebp)
	leal	-488(%ebp), %eax
	movl	%eax, -36(%ebp)
	movl	-36(%ebp), %eax
	movl	%eax, -40(%ebp)
	leal	-6488(%ebp), %eax
	movl	%eax, -44(%ebp)
	movl	-44(%ebp), %eax
	movl	%eax, -48(%ebp)
	movl	$200, -52(%ebp)
	movl	$0, -28(%ebp)
	movl	$0, -32(%ebp)
	movl	$0, _yynerrs
	movl	$-2, _yychar
	jmp	L5
L6:
	addl	$2, -40(%ebp)
L5:
	movl	-28(%ebp), %eax
	movl	-40(%ebp), %edx
	movw	%ax, (%edx)
	movl	-52(%ebp), %eax
	decl	%eax
	leal	(%eax,%eax), %edx
	movl	-36(%ebp), %eax
	addl	%edx, %eax
	cmpl	-40(%ebp), %eax
	ja	L7
	movl	-40(%ebp), %edx
	movl	-36(%ebp), %eax
	movl	%edx, %ecx
	subl	%eax, %ecx
	movl	%ecx, %eax
	sarl	%eax
	incl	%eax
	movl	%eax, -72(%ebp)
	cmpl	$9999, -52(%ebp)
	ja	L65
L8:
	sall	-52(%ebp)
	cmpl	$10000, -52(%ebp)
	jbe	L10
	movl	$10000, -52(%ebp)
L10:
	movl	-36(%ebp), %eax
	movl	%eax, -76(%ebp)
	movl	-52(%ebp), %eax
	sall	$5, %eax
	addl	$29, %eax
	movl	%eax, (%esp)
	call	_malloc
	movl	%eax, -80(%ebp)
	cmpl	$0, -80(%ebp)
	je	L66
L11:
	movl	-72(%ebp), %eax
	sall	%eax
	movl	-80(%ebp), %edx
	movl	-36(%ebp), %ecx
	movl	%ecx, %ebx
	movl	%edx, %edi
	movl	%ebx, %esi
	movl	%eax, %ecx
	rep movsb
	movl	-80(%ebp), %eax
	movl	%eax, -36(%ebp)
	movl	-52(%ebp), %eax
	sall	%eax
	addl	$29, %eax
	movl	%eax, -84(%ebp)
	movl	-84(%ebp), %eax
	movl	%eax, -6524(%ebp)
	movl	$-2004318071, %edx
	movl	-6524(%ebp), %eax
	mull	%edx
	shrl	$4, %edx
	movl	%edx, %eax
	sall	%eax
	addl	%edx, %eax
	leal	0(,%eax,4), %edx
	addl	%edx, %eax
	sall	%eax
	addl	%eax, -80(%ebp)
	movl	-72(%ebp), %edx
	movl	%edx, %eax
	sall	%eax
	addl	%edx, %eax
	leal	0(,%eax,4), %edx
	addl	%edx, %eax
	sall	%eax
	movl	-80(%ebp), %edx
	movl	-44(%ebp), %ecx
	movl	%ecx, %ebx
	movl	%edx, %edi
	movl	%ebx, %esi
	movl	%eax, %ecx
	rep movsb
	movl	-80(%ebp), %eax
	movl	%eax, -44(%ebp)
	movl	-52(%ebp), %edx
	movl	%edx, %eax
	sall	%eax
	addl	%edx, %eax
	leal	0(,%eax,4), %edx
	addl	%edx, %eax
	sall	%eax
	addl	$29, %eax
	movl	%eax, -88(%ebp)
	movl	-88(%ebp), %eax
	movl	%eax, -6524(%ebp)
	movl	$-2004318071, %edx
	movl	-6524(%ebp), %eax
	mull	%edx
	shrl	$4, %edx
	movl	%edx, %eax
	sall	%eax
	addl	%edx, %eax
	leal	0(,%eax,4), %edx
	addl	%edx, %eax
	sall	%eax
	addl	%eax, -80(%ebp)
	leal	-488(%ebp), %eax
	cmpl	%eax, -76(%ebp)
	je	L12
	movl	-76(%ebp), %eax
	movl	%eax, (%esp)
	call	_free
L12:
	movl	-72(%ebp), %eax
	decl	%eax
	leal	(%eax,%eax), %edx
	movl	-36(%ebp), %eax
	addl	%edx, %eax
	movl	%eax, -40(%ebp)
	movl	-72(%ebp), %eax
	leal	-1(%eax), %edx
	movl	%edx, %eax
	sall	%eax
	addl	%edx, %eax
	leal	0(,%eax,4), %edx
	addl	%edx, %eax
	sall	%eax
	movl	%eax, %edx
	movl	-44(%ebp), %eax
	addl	%edx, %eax
	movl	%eax, -48(%ebp)
	movl	-52(%ebp), %eax
	decl	%eax
	leal	(%eax,%eax), %edx
	movl	-36(%ebp), %eax
	addl	%edx, %eax
	cmpl	-40(%ebp), %eax
	jbe	L67
L7:
	cmpl	$4, -28(%ebp)
	je	L68
	nop
L16:
	movl	-28(%ebp), %eax
	addl	$_yypact, %eax
	movb	(%eax), %al
	movsbl	%al, %eax
	movl	%eax, -56(%ebp)
	cmpl	$-6, -56(%ebp)
	je	L69
L17:
	movl	_yychar, %eax
	cmpl	$-2, %eax
	jne	L19
	call	_yylex
	movl	%eax, _yychar
L19:
	movl	_yychar, %eax
	testl	%eax, %eax
	jg	L20
	movl	$0, -64(%ebp)
	movl	-64(%ebp), %eax
	movl	%eax, _yychar
	jmp	L21
L20:
	movl	_yychar, %eax
	cmpl	$259, %eax
	ja	L22
	movl	_yychar, %eax
	movb	_yytranslate(%eax), %al
	movzbl	%al, %eax
	jmp	L23
L22:
	movl	$2, %eax
L23:
	movl	%eax, -64(%ebp)
L21:
	movl	-64(%ebp), %eax
	addl	%eax, -56(%ebp)
	cmpl	$0, -56(%ebp)
	js	L18
	cmpl	$23, -56(%ebp)
	jg	L18
	movl	-56(%ebp), %eax
	addl	$_yycheck, %eax
	movb	(%eax), %al
	movsbl	%al, %eax
	cmpl	-64(%ebp), %eax
	jne	L18
	movl	-56(%ebp), %eax
	addl	$_yytable, %eax
	movb	(%eax), %al
	movzbl	%al, %eax
	movl	%eax, -56(%ebp)
	cmpl	$0, -56(%ebp)
	jg	L24
	negl	-56(%ebp)
	jmp	L25
L24:
	cmpl	$0, -32(%ebp)
	je	L26
	decl	-32(%ebp)
L26:
	movl	$-2, _yychar
	movl	-56(%ebp), %eax
	movl	%eax, -28(%ebp)
	addl	$30, -48(%ebp)
	movl	-48(%ebp), %eax
	movl	%eax, %edx
	movl	$_yylval, %ebx
	movl	$30, %eax
	movl	%edx, %edi
	movl	%ebx, %esi
	movl	%eax, %ecx
	rep movsb
	jmp	L6
L69:
	nop
L18:
	movl	-28(%ebp), %eax
	addl	$_yydefact, %eax
	movb	(%eax), %al
	movzbl	%al, %eax
	movl	%eax, -56(%ebp)
	cmpl	$0, -56(%ebp)
	je	L70
	nop
L25:
	movl	-56(%ebp), %eax
	addl	$_yyr2, %eax
	movb	(%eax), %al
	movzbl	%al, %eax
	movl	%eax, -68(%ebp)
	movl	-68(%ebp), %edx
	movl	%edx, %eax
	sall	%eax
	addl	%edx, %eax
	leal	0(,%eax,4), %edx
	addl	%edx, %eax
	sall	%eax
	negl	%eax
	addl	$30, %eax
	movl	%eax, %edx
	movl	-48(%ebp), %eax
	addl	%edx, %eax
	leal	-6518(%ebp), %edx
	movl	%eax, %ebx
	movl	$30, %eax
	movl	%edx, %edi
	movl	%ebx, %esi
	movl	%eax, %ecx
	rep movsb
	cmpl	$9, -56(%ebp)
	ja	L71
	movl	-56(%ebp), %eax
	sall	$2, %eax
	addl	$L38, %eax
	movl	(%eax), %eax
	jmp	*%eax
	.section .rdata,"dr"
	.align 4
L38:
	.long	L71
	.long	L71
	.long	L30
	.long	L31
	.long	L32
	.long	L33
	.long	L34
	.long	L35
	.long	L36
	.long	L37
	.text
L30:
	movl	-48(%ebp), %edx
	movl	-48(%ebp), %eax
	subl	$60, %eax
	movl	%edx, 8(%esp)
	movl	%eax, 4(%esp)
	movl	$LC1, (%esp)
	call	_printf
	jmp	L39
L31:
	movl	-48(%ebp), %eax
	subl	$30, %eax
	movl	%eax, 4(%esp)
	leal	-6518(%ebp), %eax
	movl	%eax, (%esp)
	call	_strcpy
	jmp	L39
L32:
	call	_createT
	movl	%eax, 4(%esp)
	leal	-6518(%ebp), %eax
	movl	%eax, (%esp)
	call	_strcpy
	movl	-48(%ebp), %edx
	movl	-48(%ebp), %eax
	subl	$60, %eax
	movl	%edx, 12(%esp)
	movl	%eax, 8(%esp)
	leal	-6518(%ebp), %eax
	movl	%eax, 4(%esp)
	movl	$LC2, (%esp)
	call	_printf
	jmp	L39
L33:
	call	_createT
	movl	%eax, 4(%esp)
	leal	-6518(%ebp), %eax
	movl	%eax, (%esp)
	call	_strcpy
	movl	-48(%ebp), %edx
	movl	-48(%ebp), %eax
	subl	$60, %eax
	movl	%edx, 12(%esp)
	movl	%eax, 8(%esp)
	leal	-6518(%ebp), %eax
	movl	%eax, 4(%esp)
	movl	$LC3, (%esp)
	call	_printf
	jmp	L39
L34:
	call	_createT
	movl	%eax, 4(%esp)
	leal	-6518(%ebp), %eax
	movl	%eax, (%esp)
	call	_strcpy
	movl	-48(%ebp), %edx
	movl	-48(%ebp), %eax
	subl	$60, %eax
	movl	%edx, 12(%esp)
	movl	%eax, 8(%esp)
	leal	-6518(%ebp), %eax
	movl	%eax, 4(%esp)
	movl	$LC4, (%esp)
	call	_printf
	jmp	L39
L35:
	call	_createT
	movl	%eax, 4(%esp)
	leal	-6518(%ebp), %eax
	movl	%eax, (%esp)
	call	_strcpy
	movl	-48(%ebp), %edx
	movl	-48(%ebp), %eax
	subl	$60, %eax
	movl	%edx, 12(%esp)
	movl	%eax, 8(%esp)
	leal	-6518(%ebp), %eax
	movl	%eax, 4(%esp)
	movl	$LC5, (%esp)
	call	_printf
	jmp	L39
L36:
	movl	-48(%ebp), %eax
	movl	%eax, 4(%esp)
	leal	-6518(%ebp), %eax
	movl	%eax, (%esp)
	call	_strcpy
	jmp	L39
L37:
	movl	-48(%ebp), %eax
	movl	%eax, 4(%esp)
	leal	-6518(%ebp), %eax
	movl	%eax, (%esp)
	call	_strcpy
	jmp	L39
L71:
	nop
L39:
	movl	-68(%ebp), %edx
	movl	%edx, %eax
	sall	%eax
	addl	%edx, %eax
	leal	0(,%eax,4), %edx
	addl	%edx, %eax
	sall	%eax
	negl	%eax
	addl	%eax, -48(%ebp)
	movl	-68(%ebp), %eax
	sall	%eax
	negl	%eax
	addl	%eax, -40(%ebp)
	movl	$0, -68(%ebp)
	addl	$30, -48(%ebp)
	movl	-48(%ebp), %eax
	movl	%eax, %edx
	leal	-6518(%ebp), %ebx
	movl	$30, %eax
	movl	%edx, %edi
	movl	%ebx, %esi
	movl	%eax, %ecx
	rep movsb
	movl	-56(%ebp), %eax
	addl	$_yyr1, %eax
	movb	(%eax), %al
	movzbl	%al, %eax
	movl	%eax, -56(%ebp)
	movl	-56(%ebp), %eax
	subl	$12, %eax
	movb	_yypgoto(%eax), %al
	movsbl	%al, %edx
	movl	-40(%ebp), %eax
	movw	(%eax), %ax
	cwtl
	addl	%edx, %eax
	movl	%eax, -28(%ebp)
	cmpl	$0, -28(%ebp)
	js	L40
	cmpl	$23, -28(%ebp)
	jg	L40
	movl	-28(%ebp), %eax
	addl	$_yycheck, %eax
	movb	(%eax), %al
	movsbw	%al, %dx
	movl	-40(%ebp), %eax
	movw	(%eax), %ax
	cmpw	%ax, %dx
	jne	L40
	movl	-28(%ebp), %eax
	addl	$_yytable, %eax
	movb	(%eax), %al
	movzbl	%al, %eax
	movl	%eax, -28(%ebp)
	jmp	L6
L40:
	movl	-56(%ebp), %eax
	subl	$12, %eax
	movb	_yydefgoto(%eax), %al
	movsbl	%al, %eax
	movl	%eax, -28(%ebp)
	jmp	L6
L70:
	nop
L63:
L28:
	movl	_yychar, %eax
	cmpl	$-2, %eax
	je	L42
	movl	_yychar, %eax
	cmpl	$259, %eax
	ja	L43
	movl	_yychar, %eax
	movb	_yytranslate(%eax), %al
	movzbl	%al, %eax
	jmp	L44
L43:
	movl	$2, %eax
L44:
	jmp	L45
L42:
	movl	$-2, %eax
L45:
	movl	%eax, -64(%ebp)
	cmpl	$0, -32(%ebp)
	jne	L46
	movl	_yynerrs, %eax
	incl	%eax
	movl	%eax, _yynerrs
	movl	$LC6, (%esp)
	call	_yyerror
L46:
	cmpl	$3, -32(%ebp)
	jne	L72
	movl	_yychar, %eax
	testl	%eax, %eax
	jg	L48
	movl	_yychar, %eax
	testl	%eax, %eax
	jne	L72
	jmp	L13
L48:
	movl	$_yylval, 8(%esp)
	movl	-64(%ebp), %eax
	movl	%eax, 4(%esp)
	movl	$LC7, (%esp)
	call	_yydestruct
	movl	$-2, _yychar
L72:
	nop
L49:
	movl	$3, -32(%ebp)
L53:
	movl	-28(%ebp), %eax
	addl	$_yypact, %eax
	movb	(%eax), %al
	movsbl	%al, %eax
	movl	%eax, -56(%ebp)
	cmpl	$-6, -56(%ebp)
	je	L50
	incl	-56(%ebp)
	cmpl	$0, -56(%ebp)
	js	L50
	cmpl	$23, -56(%ebp)
	jg	L50
	movl	-56(%ebp), %eax
	addl	$_yycheck, %eax
	movb	(%eax), %al
	cmpb	$1, %al
	jne	L50
	movl	-56(%ebp), %eax
	addl	$_yytable, %eax
	movb	(%eax), %al
	movzbl	%al, %eax
	movl	%eax, -56(%ebp)
	cmpl	$0, -56(%ebp)
	jg	L73
L50:
	movl	-40(%ebp), %eax
	cmpl	-36(%ebp), %eax
	je	L74
L52:
	movl	-28(%ebp), %eax
	addl	$_yystos, %eax
	movb	(%eax), %al
	movzbl	%al, %eax
	movl	-48(%ebp), %edx
	movl	%edx, 8(%esp)
	movl	%eax, 4(%esp)
	movl	$LC8, (%esp)
	call	_yydestruct
	subl	$30, -48(%ebp)
	subl	$2, -40(%ebp)
	movl	-40(%ebp), %eax
	movw	(%eax), %ax
	cwtl
	movl	%eax, -28(%ebp)
	jmp	L53
L73:
	nop
L64:
	addl	$30, -48(%ebp)
	movl	-48(%ebp), %eax
	movl	%eax, %edx
	movl	$_yylval, %ebx
	movl	$30, %eax
	movl	%edx, %edi
	movl	%ebx, %esi
	movl	%eax, %ecx
	rep movsb
	movl	-56(%ebp), %eax
	movl	%eax, -28(%ebp)
	jmp	L6
L68:
	nop
L62:
L15:
	movl	$0, -60(%ebp)
	jmp	L54
L67:
	nop
	jmp	L13
L74:
	nop
L13:
	movl	$1, -60(%ebp)
	jmp	L54
L65:
	nop
	jmp	L9
L66:
	nop
L9:
	movl	$LC9, (%esp)
	call	_yyerror
	movl	$2, -60(%ebp)
L54:
	movl	_yychar, %eax
	cmpl	$-2, %eax
	je	L55
	movl	_yychar, %eax
	cmpl	$259, %eax
	ja	L56
	movl	_yychar, %eax
	movb	_yytranslate(%eax), %al
	movzbl	%al, %eax
	jmp	L57
L56:
	movl	$2, %eax
L57:
	movl	%eax, -64(%ebp)
	movl	$_yylval, 8(%esp)
	movl	-64(%ebp), %eax
	movl	%eax, 4(%esp)
	movl	$LC10, (%esp)
	call	_yydestruct
L55:
	movl	-68(%ebp), %edx
	movl	%edx, %eax
	sall	%eax
	addl	%edx, %eax
	leal	0(,%eax,4), %edx
	addl	%edx, %eax
	sall	%eax
	negl	%eax
	addl	%eax, -48(%ebp)
	movl	-68(%ebp), %eax
	sall	%eax
	negl	%eax
	addl	%eax, -40(%ebp)
	jmp	L58
L59:
	movl	-40(%ebp), %eax
	movw	(%eax), %ax
	cwtl
	movb	_yystos(%eax), %al
	movzbl	%al, %eax
	movl	-48(%ebp), %edx
	movl	%edx, 8(%esp)
	movl	%eax, 4(%esp)
	movl	$LC11, (%esp)
	call	_yydestruct
	subl	$30, -48(%ebp)
	subl	$2, -40(%ebp)
L58:
	movl	-40(%ebp), %eax
	cmpl	-36(%ebp), %eax
	jne	L59
	leal	-488(%ebp), %eax
	cmpl	%eax, -36(%ebp)
	je	L60
	movl	-36(%ebp), %eax
	movl	%eax, (%esp)
	call	_free
L60:
	movl	-60(%ebp), %eax
	addl	$6540, %esp
	popl	%ebx
	.cfi_restore 3
	popl	%esi
	.cfi_restore 6
	popl	%edi
	.cfi_restore 7
	popl	%ebp
	.cfi_restore 5
	.cfi_def_cfa 4, 4
	ret
	.cfi_endproc
LFE7:
	.section .rdata,"dr"
LC12:
	.ascii "t%d\0"
	.text
	.globl	_createT
	.def	_createT;	.scl	2;	.type	32;	.endef
_createT:
LFB8:
	.cfi_startproc
	pushl	%ebp
	.cfi_def_cfa_offset 8
	.cfi_offset 5, -8
	movl	%esp, %ebp
	.cfi_def_cfa_register 5
	subl	$72, %esp
	movl	_tempcount, %eax
	movl	%eax, 8(%esp)
	movl	$LC12, 4(%esp)
	leal	-42(%ebp), %eax
	movl	%eax, (%esp)
	call	_sprintf
	leal	-42(%ebp), %eax
	movl	%eax, -12(%ebp)
	movl	_tempcount, %eax
	incl	%eax
	movl	%eax, _tempcount
	movl	-12(%ebp), %eax
	leave
	.cfi_restore 5
	.cfi_def_cfa 4, 4
	ret
	.cfi_endproc
LFE8:
	.def	___main;	.scl	2;	.type	32;	.endef
	.globl	_main
	.def	_main;	.scl	2;	.type	32;	.endef
_main:
LFB9:
	.cfi_startproc
	pushl	%ebp
	.cfi_def_cfa_offset 8
	.cfi_offset 5, -8
	movl	%esp, %ebp
	.cfi_def_cfa_register 5
	andl	$-16, %esp
	call	___main
	call	_yyparse
	leave
	.cfi_restore 5
	.cfi_def_cfa 4, 4
	ret
	.cfi_endproc
LFE9:
	.section .rdata,"dr"
LC13:
	.ascii "\12Invlaid\0"
	.text
	.globl	_yyerror
	.def	_yyerror;	.scl	2;	.type	32;	.endef
_yyerror:
LFB10:
	.cfi_startproc
	pushl	%ebp
	.cfi_def_cfa_offset 8
	.cfi_offset 5, -8
	movl	%esp, %ebp
	.cfi_def_cfa_register 5
	subl	$24, %esp
	movl	$LC13, (%esp)
	call	_printf
	movl	$0, (%esp)
	call	_exit
	.cfi_endproc
LFE10:
	.def	_malloc;	.scl	2;	.type	32;	.endef
	.def	_free;	.scl	2;	.type	32;	.endef
	.def	_yylex;	.scl	2;	.type	32;	.endef
	.def	_printf;	.scl	2;	.type	32;	.endef
	.def	_strcpy;	.scl	2;	.type	32;	.endef
	.def	_sprintf;	.scl	2;	.type	32;	.endef
	.def	_exit;	.scl	2;	.type	32;	.endef
